; Function Attrs: nounwind uwtable
define internal i32 @test_CTX_set0_get0_reqExtensions() #1 {
  %1 = tail call fastcc ptr @set_up(ptr noundef nonnull @.str.33)
  %2 = icmp eq ptr %1, null
  br i1 %2, label %59, label %3

3:                                                ; preds = %0
  %4 = getelementptr i8, ptr %1, i64 8
  %.val = load ptr, ptr %4, align 8, !tbaa !4
  %5 = tail call ptr @OPENSSL_sk_new_null() #6
  %6 = tail call ptr @OPENSSL_sk_new_null() #6
  %7 = tail call i64 @ERR_peek_error() #6
  %8 = trunc i64 %7 to i32
  %9 = tail call i32 @test_int_eq(ptr noundef nonnull @.str, i32 noundef 791, ptr noundef nonnull @.str.62, ptr noundef nonnull @.str.63, i32 noundef %8, i32 noundef 0) #6
  %10 = tail call i32 @OSSL_CMP_CTX_set0_reqExtensions(ptr noundef null, ptr noundef %5) #6
  %.not31.i = icmp eq i32 %10, 0
  br i1 %.not31.i, label %11, label %14

11:                                               ; preds = %3
  %.not.i = icmp ne i32 %9, 0
  %spec.select.i = zext i1 %.not.i to i32
  %12 = tail call i64 @ERR_peek_error() #6
  %13 = icmp eq i64 %12, 0
  br i1 %13, label %14, label %15

14:                                               ; preds = %11, %3
  tail call void (ptr, i32, ptr, ...) @test_error(ptr noundef nonnull @.str, i32 noundef 791, ptr noundef nonnull @.str.64) #6
  br label %15

15:                                               ; preds = %14, %11
  %.1.i = phi i32 [ 0, %14 ], [ %spec.select.i, %11 ]
  tail call void @ERR_clear_error() #6
  tail call void @ERR_new() #6
  tail call void @ERR_set_debug(ptr noundef nonnull @.str, i32 noundef 791, ptr noundef nonnull @__func__.OSSL_CMP_CTX_get0_reqExtensions) #6
  tail call void (i32, i32, ptr, ...) @ERR_set_error(i32 noundef 58, i32 noundef 103, ptr noundef null) #6
  %16 = tail call i64 @ERR_peek_error() #6
  %17 = icmp eq i64 %16, 0
  br i1 %17, label %18, label %19

18:                                               ; preds = %15
  tail call void (ptr, i32, ptr, ...) @test_error(ptr noundef nonnull @.str, i32 noundef 791, ptr noundef nonnull @.str.65) #6
  br label %19

19:                                               ; preds = %18, %15
  %.2.i = phi i32 [ 0, %18 ], [ %.1.i, %15 ]
  tail call void @ERR_clear_error() #6
  %20 = icmp eq ptr %.val, null
  br i1 %20, label %OSSL_CMP_CTX_get0_reqExtensions.exit.thread.i, label %OSSL_CMP_CTX_get0_reqExtensions.exit.i

OSSL_CMP_CTX_get0_reqExtensions.exit.thread.i:    ; preds = %19
  tail call void @ERR_new() #6
  tail call void @ERR_set_debug(ptr noundef nonnull @.str, i32 noundef 791, ptr noundef nonnull @__func__.OSSL_CMP_CTX_get0_reqExtensions) #6
  tail call void (i32, i32, ptr, ...) @ERR_set_error(i32 noundef 58, i32 noundef 103, ptr noundef null) #6
  br label %25

OSSL_CMP_CTX_get0_reqExtensions.exit.i:           ; preds = %19
  %21 = getelementptr inbounds nuw i8, ptr %.val, i64 408
  %22 = load ptr, ptr %21, align 8, !tbaa !65
  %23 = icmp eq ptr %22, null
  br i1 %23, label %25, label %24

24:                                               ; preds = %OSSL_CMP_CTX_get0_reqExtensions.exit.i
  tail call void (ptr, i32, ptr, ...) @test_error(ptr noundef nonnull @.str, i32 noundef 791, ptr noundef nonnull @.str.66) #6
  br label %25

25:                                               ; preds = %24, %OSSL_CMP_CTX_get0_reqExtensions.exit.i, %OSSL_CMP_CTX_get0_reqExtensions.exit.thread.i
  %.3.i = phi i32 [ %.2.i, %OSSL_CMP_CTX_get0_reqExtensions.exit.i ], [ 0, %24 ], [ %.2.i, %OSSL_CMP_CTX_get0_reqExtensions.exit.thread.i ]
  %26 = tail call i32 @OSSL_CMP_CTX_set0_reqExtensions(ptr noundef %.val, ptr noundef %5) #6
  %.not33.i = icmp eq i32 %26, 0
  br i1 %.not33.i, label %27, label %28

27:                                               ; preds = %25
  tail call void (ptr, i32, ptr, ...) @test_error(ptr noundef nonnull @.str, i32 noundef 791, ptr noundef nonnull @.str.67) #6
  br label %28

28:                                               ; preds = %27, %25
  %.4.i = phi i32 [ %.3.i, %25 ], [ 0, %27 ]
  br i1 %20, label %29, label %30

29:                                               ; preds = %28
  tail call void @ERR_new() #6
  tail call void @ERR_set_debug(ptr noundef nonnull @.str, i32 noundef 791, ptr noundef nonnull @__func__.OSSL_CMP_CTX_get0_reqExtensions) #6
  tail call void (i32, i32, ptr, ...) @ERR_set_error(i32 noundef 58, i32 noundef 103, ptr noundef null) #6
  br label %OSSL_CMP_CTX_get0_reqExtensions.exit41.i

30:                                               ; preds = %28
  %31 = getelementptr inbounds nuw i8, ptr %.val, i64 408
  %32 = load ptr, ptr %31, align 8, !tbaa !65
  br label %OSSL_CMP_CTX_get0_reqExtensions.exit41.i

OSSL_CMP_CTX_get0_reqExtensions.exit41.i:         ; preds = %30, %29
  %.0.i40.i = phi ptr [ null, %29 ], [ %32, %30 ]
  %.not34.i = icmp eq ptr %.0.i40.i, %5
  br i1 %.not34.i, label %34, label %33

33:                                               ; preds = %OSSL_CMP_CTX_get0_reqExtensions.exit41.i
  tail call void (ptr, i32, ptr, ...) @test_error(ptr noundef nonnull @.str, i32 noundef 791, ptr noundef nonnull @.str.68) #6
  br label %34

34:                                               ; preds = %33, %OSSL_CMP_CTX_get0_reqExtensions.exit41.i
  %.5.i = phi i32 [ 0, %33 ], [ %.4.i, %OSSL_CMP_CTX_get0_reqExtensions.exit41.i ]
  %35 = tail call i32 @OSSL_CMP_CTX_set0_reqExtensions(ptr noundef %.val, ptr noundef %6) #6
  %.not35.i = icmp eq i32 %35, 0
  br i1 %.not35.i, label %36, label %37

36:                                               ; preds = %34
  tail call void (ptr, i32, ptr, ...) @test_error(ptr noundef nonnull @.str, i32 noundef 791, ptr noundef nonnull @.str.69) #6
  br label %37

37:                                               ; preds = %36, %34
  %.6.i = phi i32 [ %.5.i, %34 ], [ 0, %36 ]
  br i1 %20, label %OSSL_CMP_CTX_get0_reqExtensions.exit43.thread.i, label %OSSL_CMP_CTX_get0_reqExtensions.exit43.i

OSSL_CMP_CTX_get0_reqExtensions.exit43.thread.i:  ; preds = %37
  tail call void @ERR_new() #6
  tail call void @ERR_set_debug(ptr noundef nonnull @.str, i32 noundef 791, ptr noundef nonnull @__func__.OSSL_CMP_CTX_get0_reqExtensions) #6
  tail call void (i32, i32, ptr, ...) @ERR_set_error(i32 noundef 58, i32 noundef 103, ptr noundef null) #6
  br label %41

OSSL_CMP_CTX_get0_reqExtensions.exit43.i:         ; preds = %37
  %38 = getelementptr inbounds nuw i8, ptr %.val, i64 408
  %39 = load ptr, ptr %38, align 8, !tbaa !65
  %40 = icmp eq ptr %39, null
  br i1 %40, label %41, label %42

41:                                               ; preds = %OSSL_CMP_CTX_get0_reqExtensions.exit43.i, %OSSL_CMP_CTX_get0_reqExtensions.exit43.thread.i
  tail call void (ptr, i32, ptr, ...) @test_error(ptr noundef nonnull @.str, i32 noundef 791, ptr noundef nonnull @.str.70) #6
  br label %42

42:                                               ; preds = %41, %OSSL_CMP_CTX_get0_reqExtensions.exit43.i
  %.0.i423.i = phi ptr [ null, %41 ], [ %39, %OSSL_CMP_CTX_get0_reqExtensions.exit43.i ]
  %.7.i = phi i32 [ 0, %41 ], [ %.6.i, %OSSL_CMP_CTX_get0_reqExtensions.exit43.i ]
  %.not36.i = icmp eq ptr %.0.i423.i, %6
  br i1 %.not36.i, label %44, label %43

43:                                               ; preds = %42
  tail call void (ptr, i32, ptr, ...) @test_error(ptr noundef nonnull @.str, i32 noundef 791, ptr noundef nonnull @.str.71) #6
  br label %44

44:                                               ; preds = %43, %42
  %.8.i = phi i32 [ 0, %43 ], [ %.7.i, %42 ]
  br i1 %20, label %OSSL_CMP_CTX_get0_reqExtensions.exit45.thread.i, label %OSSL_CMP_CTX_get0_reqExtensions.exit45.i

OSSL_CMP_CTX_get0_reqExtensions.exit45.thread.i:  ; preds = %44
  tail call void @ERR_new() #6
  tail call void @ERR_set_debug(ptr noundef nonnull @.str, i32 noundef 791, ptr noundef nonnull @__func__.OSSL_CMP_CTX_get0_reqExtensions) #6
  tail call void (i32, i32, ptr, ...) @ERR_set_error(i32 noundef 58, i32 noundef 103, ptr noundef null) #6
  br label %48

OSSL_CMP_CTX_get0_reqExtensions.exit45.i:         ; preds = %44
  %45 = getelementptr inbounds nuw i8, ptr %.val, i64 408
  %46 = load ptr, ptr %45, align 8, !tbaa !65
  %47 = icmp eq ptr %46, null
  br i1 %47, label %48, label %49

48:                                               ; preds = %OSSL_CMP_CTX_get0_reqExtensions.exit45.i, %OSSL_CMP_CTX_get0_reqExtensions.exit45.thread.i
  tail call void (ptr, i32, ptr, ...) @test_error(ptr noundef nonnull @.str, i32 noundef 791, ptr noundef nonnull @.str.72) #6
  br label %49

49:                                               ; preds = %48, %OSSL_CMP_CTX_get0_reqExtensions.exit45.i
  %.0.i446.i = phi ptr [ null, %48 ], [ %46, %OSSL_CMP_CTX_get0_reqExtensions.exit45.i ]
  %.9.i = phi i32 [ 0, %48 ], [ %.8.i, %OSSL_CMP_CTX_get0_reqExtensions.exit45.i ]
  %.not37.i = icmp eq ptr %.0.i446.i, %.0.i423.i
  br i1 %.not37.i, label %tear_down.exit, label %50

50:                                               ; preds = %49
  tail call void (ptr, i32, ptr, ...) @test_error(ptr noundef nonnull @.str, i32 noundef 791, ptr noundef nonnull @.str.73) #6
  br label %tear_down.exit

tear_down.exit:                                   ; preds = %49, %50
  %.10.i = phi i32 [ 0, %50 ], [ %.9.i, %49 ]
  %51 = tail call i64 @ERR_peek_error() #6
  %52 = trunc i64 %51 to i32
  %53 = tail call i32 @test_int_eq(ptr noundef nonnull @.str, i32 noundef 791, ptr noundef nonnull @.str.62, ptr noundef nonnull @.str.63, i32 noundef %52, i32 noundef 0) #6
  %.not38.i = icmp ne i32 %53, 0
  tail call void @OPENSSL_sk_free(ptr noundef null) #6
  tail call void @OPENSSL_sk_free(ptr noundef null) #6
  %54 = icmp ne i32 %.10.i, 0
  %55 = select i1 %.not38.i, i1 %54, i1 false
  %56 = zext i1 %55 to i32
  %57 = tail call i32 @test_true(ptr noundef nonnull @.str, i32 noundef 791, ptr noundef nonnull @.str.74, i32 noundef %56) #6
  %58 = load ptr, ptr %4, align 8, !tbaa !4
  tail call void @OSSL_CMP_CTX_free(ptr noundef %58) #6
  tail call void @CRYPTO_free(ptr noundef nonnull %1, ptr noundef nonnull @.str, i32 noundef 25) #6
  br label %59

59:                                               ; preds = %0, %tear_down.exit
  %.05 = phi i32 [ %57, %tear_down.exit ], [ 0, %0 ]
  ret i32 %.05
}